target datalayout = "e-m:e-p270:32:32-p271:32:32-p272:64:64-i64:64-i128:128-f80:128-n8:16:32:64-S128"
target triple = "x86_64-pc-linux-gnu"

%struct.mi_stat_count_s = type { i64, i64, i64, i64 }

@.str.1 = private unnamed_addr constant [1 x i8] zeroinitializer, align 1
@.str.30 = private unnamed_addr constant [2 x i8] c"\0A\00", align 1
@.str.39 = private unnamed_addr constant [6 x i8] c"%10s:\00", align 1
@.str.40 = private unnamed_addr constant [5 x i8] c"%24s\00", align 1
@.str.41 = private unnamed_addr constant [3 x i8] c"  \00", align 1
@.str.42 = private unnamed_addr constant [14 x i8] c"not all freed\00", align 1
@.str.43 = private unnamed_addr constant [6 x i8] c"  ok\0A\00", align 1
@.str.44 = private unnamed_addr constant [5 x i8] c"%11s\00", align 1
@.str.45 = private unnamed_addr constant [2 x i8] c" \00", align 1
@.str.46 = private unnamed_addr constant [5 x i8] c"%12s\00", align 1

; Function Attrs: nounwind uwtable
define internal void @mi_print_count(i64 noundef %0, i64 noundef %1, ptr noundef %2, ptr noundef %3) #0 {
  %5 = alloca i64, align 8
  %6 = alloca i64, align 8
  %7 = alloca ptr, align 8
  %8 = alloca ptr, align 8
  store i64 %0, ptr %5, align 8, !tbaa !8
  store i64 %1, ptr %6, align 8, !tbaa !8
  store ptr %2, ptr %7, align 8, !tbaa !13
  store ptr %3, ptr %8, align 8, !tbaa !13
  %9 = load i64, ptr %6, align 8, !tbaa !8
  %10 = icmp eq i64 %9, 1
  br i1 %10, label %11, label %14

11:                                               ; preds = %4
  %12 = load ptr, ptr %7, align 8, !tbaa !13
  %13 = load ptr, ptr %8, align 8, !tbaa !13
  call void (ptr, ptr, ptr, ...) @_mi_fprintf(ptr noundef %12, ptr noundef %13, ptr noundef @.str.46, ptr noundef @.str.45) #6
  br label %18

14:                                               ; preds = %4
  %15 = load i64, ptr %5, align 8, !tbaa !8
  %16 = load ptr, ptr %7, align 8, !tbaa !13
  %17 = load ptr, ptr %8, align 8, !tbaa !13
  call void @mi_print_amount(i64 noundef %15, i64 noundef 0, ptr noundef %16, ptr noundef %17) #6
  br label %18

18:                                               ; preds = %14, %11
  ret void
}

; Function Attrs: nounwind uwtable
define internal void @mi_print_amount(i64 noundef %0, i64 noundef %1, ptr noundef %2, ptr noundef %3) #0 {
  %5 = alloca i64, align 8
  %6 = alloca i64, align 8
  %7 = alloca ptr, align 8
  %8 = alloca ptr, align 8
  store i64 %0, ptr %5, align 8, !tbaa !8
  store i64 %1, ptr %6, align 8, !tbaa !8
  store ptr %2, ptr %7, align 8, !tbaa !13
  store ptr %3, ptr %8, align 8, !tbaa !13
  %9 = load i64, ptr %5, align 8, !tbaa !8
  %10 = load i64, ptr %6, align 8, !tbaa !8
  %11 = load ptr, ptr %7, align 8, !tbaa !13
  %12 = load ptr, ptr %8, align 8, !tbaa !13
  call void @mi_printf_amount(i64 noundef %9, i64 noundef %10, ptr noundef %11, ptr noundef %12, ptr noundef null) #6
  ret void
}

; Function Attrs: nounwind uwtable
define internal void @mi_stat_print_ex(ptr noundef %0, ptr noundef %1, i64 noundef %2, ptr noundef %3, ptr noundef %4, ptr noundef %5) #0 {
  %7 = alloca ptr, align 8
  %8 = alloca ptr, align 8
  %9 = alloca i64, align 8
  %10 = alloca ptr, align 8
  %11 = alloca ptr, align 8
  %12 = alloca ptr, align 8
  store ptr %0, ptr %7, align 8, !tbaa !16
  store ptr %1, ptr %8, align 8, !tbaa !54
  store i64 %2, ptr %9, align 8, !tbaa !8
  store ptr %3, ptr %10, align 8, !tbaa !13
  store ptr %4, ptr %11, align 8, !tbaa !13
  store ptr %5, ptr %12, align 8, !tbaa !54
  %13 = load ptr, ptr %10, align 8, !tbaa !13
  %14 = load ptr, ptr %11, align 8, !tbaa !13
  %15 = load ptr, ptr %8, align 8, !tbaa !54
  call void (ptr, ptr, ptr, ...) @_mi_fprintf(ptr noundef %13, ptr noundef %14, ptr noundef @.str.39, ptr noundef %15) #6
  %16 = load i64, ptr %9, align 8, !tbaa !8
  %17 = icmp ne i64 %16, 0
  br i1 %17, label %18, label %121

18:                                               ; preds = %6
  %19 = load i64, ptr %9, align 8, !tbaa !8
  %20 = icmp sgt i64 %19, 0
  br i1 %20, label %21, label %55

21:                                               ; preds = %18
  %22 = load ptr, ptr %7, align 8, !tbaa !16
  %23 = getelementptr inbounds nuw %struct.mi_stat_count_s, ptr %22, i32 0, i32 2
  %24 = load i64, ptr %23, align 8, !tbaa !20
  %25 = load i64, ptr %9, align 8, !tbaa !8
  %26 = load ptr, ptr %10, align 8, !tbaa !13
  %27 = load ptr, ptr %11, align 8, !tbaa !13
  call void @mi_print_amount(i64 noundef %24, i64 noundef %25, ptr noundef %26, ptr noundef %27) #6
  %28 = load ptr, ptr %7, align 8, !tbaa !16
  %29 = getelementptr inbounds nuw %struct.mi_stat_count_s, ptr %28, i32 0, i32 0
  %30 = load i64, ptr %29, align 8, !tbaa !21
  %31 = load i64, ptr %9, align 8, !tbaa !8
  %32 = load ptr, ptr %10, align 8, !tbaa !13
  %33 = load ptr, ptr %11, align 8, !tbaa !13
  call void @mi_print_amount(i64 noundef %30, i64 noundef %31, ptr noundef %32, ptr noundef %33) #6
  %34 = load ptr, ptr %7, align 8, !tbaa !16
  %35 = getelementptr inbounds nuw %struct.mi_stat_count_s, ptr %34, i32 0, i32 1
  %36 = load i64, ptr %35, align 8, !tbaa !22
  %37 = load i64, ptr %9, align 8, !tbaa !8
  %38 = load ptr, ptr %10, align 8, !tbaa !13
  %39 = load ptr, ptr %11, align 8, !tbaa !13
  call void @mi_print_amount(i64 noundef %36, i64 noundef %37, ptr noundef %38, ptr noundef %39) #6
  %40 = load ptr, ptr %7, align 8, !tbaa !16
  %41 = getelementptr inbounds nuw %struct.mi_stat_count_s, ptr %40, i32 0, i32 3
  %42 = load i64, ptr %41, align 8, !tbaa !18
  %43 = load i64, ptr %9, align 8, !tbaa !8
  %44 = load ptr, ptr %10, align 8, !tbaa !13
  %45 = load ptr, ptr %11, align 8, !tbaa !13
  call void @mi_print_amount(i64 noundef %42, i64 noundef %43, ptr noundef %44, ptr noundef %45) #6
  %46 = load i64, ptr %9, align 8, !tbaa !8
  %47 = load ptr, ptr %10, align 8, !tbaa !13
  %48 = load ptr, ptr %11, align 8, !tbaa !13
  call void @mi_print_amount(i64 noundef %46, i64 noundef 1, ptr noundef %47, ptr noundef %48) #6
  %49 = load ptr, ptr %7, align 8, !tbaa !16
  %50 = getelementptr inbounds nuw %struct.mi_stat_count_s, ptr %49, i32 0, i32 0
  %51 = load i64, ptr %50, align 8, !tbaa !21
  %52 = load i64, ptr %9, align 8, !tbaa !8
  %53 = load ptr, ptr %10, align 8, !tbaa !13
  %54 = load ptr, ptr %11, align 8, !tbaa !13
  call void @mi_print_count(i64 noundef %51, i64 noundef %52, ptr noundef %53, ptr noundef %54) #6
  br label %95

55:                                               ; preds = %18
  %56 = load ptr, ptr %7, align 8, !tbaa !16
  %57 = getelementptr inbounds nuw %struct.mi_stat_count_s, ptr %56, i32 0, i32 2
  %58 = load i64, ptr %57, align 8, !tbaa !20
  %59 = load ptr, ptr %10, align 8, !tbaa !13
  %60 = load ptr, ptr %11, align 8, !tbaa !13
  call void @mi_print_amount(i64 noundef %58, i64 noundef -1, ptr noundef %59, ptr noundef %60) #6
  %61 = load ptr, ptr %7, align 8, !tbaa !16
  %62 = getelementptr inbounds nuw %struct.mi_stat_count_s, ptr %61, i32 0, i32 0
  %63 = load i64, ptr %62, align 8, !tbaa !21
  %64 = load ptr, ptr %10, align 8, !tbaa !13
  %65 = load ptr, ptr %11, align 8, !tbaa !13
  call void @mi_print_amount(i64 noundef %63, i64 noundef -1, ptr noundef %64, ptr noundef %65) #6
  %66 = load ptr, ptr %7, align 8, !tbaa !16
  %67 = getelementptr inbounds nuw %struct.mi_stat_count_s, ptr %66, i32 0, i32 1
  %68 = load i64, ptr %67, align 8, !tbaa !22
  %69 = load ptr, ptr %10, align 8, !tbaa !13
  %70 = load ptr, ptr %11, align 8, !tbaa !13
  call void @mi_print_amount(i64 noundef %68, i64 noundef -1, ptr noundef %69, ptr noundef %70) #6
  %71 = load ptr, ptr %7, align 8, !tbaa !16
  %72 = getelementptr inbounds nuw %struct.mi_stat_count_s, ptr %71, i32 0, i32 3
  %73 = load i64, ptr %72, align 8, !tbaa !18
  %74 = load ptr, ptr %10, align 8, !tbaa !13
  %75 = load ptr, ptr %11, align 8, !tbaa !13
  call void @mi_print_amount(i64 noundef %73, i64 noundef -1, ptr noundef %74, ptr noundef %75) #6
  %76 = load i64, ptr %9, align 8, !tbaa !8
  %77 = icmp eq i64 %76, -1
  br i1 %77, label %78, label %81

78:                                               ; preds = %55
  %79 = load ptr, ptr %10, align 8, !tbaa !13
  %80 = load ptr, ptr %11, align 8, !tbaa !13
  call void (ptr, ptr, ptr, ...) @_mi_fprintf(ptr noundef %79, ptr noundef %80, ptr noundef @.str.40, ptr noundef @.str.1) #6
  br label %94

81:                                               ; preds = %55
  %82 = load i64, ptr %9, align 8, !tbaa !8
  %83 = sub nsw i64 0, %82
  %84 = load ptr, ptr %10, align 8, !tbaa !13
  %85 = load ptr, ptr %11, align 8, !tbaa !13
  call void @mi_print_amount(i64 noundef %83, i64 noundef 1, ptr noundef %84, ptr noundef %85) #6
  %86 = load ptr, ptr %7, align 8, !tbaa !16
  %87 = getelementptr inbounds nuw %struct.mi_stat_count_s, ptr %86, i32 0, i32 0
  %88 = load i64, ptr %87, align 8, !tbaa !21
  %89 = load i64, ptr %9, align 8, !tbaa !8
  %90 = sub nsw i64 0, %89
  %91 = sdiv i64 %88, %90
  %92 = load ptr, ptr %10, align 8, !tbaa !13
  %93 = load ptr, ptr %11, align 8, !tbaa !13
  call void @mi_print_count(i64 noundef %91, i64 noundef 0, ptr noundef %92, ptr noundef %93) #6
  br label %94

94:                                               ; preds = %81, %78
  br label %95

95:                                               ; preds = %94, %21
  %96 = load ptr, ptr %7, align 8, !tbaa !16
  %97 = getelementptr inbounds nuw %struct.mi_stat_count_s, ptr %96, i32 0, i32 0
  %98 = load i64, ptr %97, align 8, !tbaa !21
  %99 = load ptr, ptr %7, align 8, !tbaa !16
  %100 = getelementptr inbounds nuw %struct.mi_stat_count_s, ptr %99, i32 0, i32 1
  %101 = load i64, ptr %100, align 8, !tbaa !22
  %102 = icmp sgt i64 %98, %101
  br i1 %102, label %103, label %117

103:                                              ; preds = %95
  %104 = load ptr, ptr %10, align 8, !tbaa !13
  %105 = load ptr, ptr %11, align 8, !tbaa !13
  call void (ptr, ptr, ptr, ...) @_mi_fprintf(ptr noundef %104, ptr noundef %105, ptr noundef @.str.41) #6
  %106 = load ptr, ptr %10, align 8, !tbaa !13
  %107 = load ptr, ptr %11, align 8, !tbaa !13
  %108 = load ptr, ptr %12, align 8, !tbaa !54
  %109 = icmp eq ptr %108, null
  br i1 %109, label %110, label %111

110:                                              ; preds = %103
  br label %113

111:                                              ; preds = %103
  %112 = load ptr, ptr %12, align 8, !tbaa !54
  br label %113

113:                                              ; preds = %111, %110
  %114 = phi ptr [ @.str.42, %110 ], [ %112, %111 ]
  call void (ptr, ptr, ptr, ...) @_mi_fprintf(ptr noundef %106, ptr noundef %107, ptr noundef %114) #6
  %115 = load ptr, ptr %10, align 8, !tbaa !13
  %116 = load ptr, ptr %11, align 8, !tbaa !13
  call void (ptr, ptr, ptr, ...) @_mi_fprintf(ptr noundef %115, ptr noundef %116, ptr noundef @.str.30) #6
  br label %120

117:                                              ; preds = %95
  %118 = load ptr, ptr %10, align 8, !tbaa !13
  %119 = load ptr, ptr %11, align 8, !tbaa !13
  call void (ptr, ptr, ptr, ...) @_mi_fprintf(ptr noundef %118, ptr noundef %119, ptr noundef @.str.43) #6
  br label %120

120:                                              ; preds = %117, %113
  br label %141

121:                                              ; preds = %6
  %122 = load ptr, ptr %7, align 8, !tbaa !16
  %123 = getelementptr inbounds nuw %struct.mi_stat_count_s, ptr %122, i32 0, i32 2
  %124 = load i64, ptr %123, align 8, !tbaa !20
  %125 = load ptr, ptr %10, align 8, !tbaa !13
  %126 = load ptr, ptr %11, align 8, !tbaa !13
  call void @mi_print_amount(i64 noundef %124, i64 noundef 1, ptr noundef %125, ptr noundef %126) #6
  %127 = load ptr, ptr %7, align 8, !tbaa !16
  %128 = getelementptr inbounds nuw %struct.mi_stat_count_s, ptr %127, i32 0, i32 0
  %129 = load i64, ptr %128, align 8, !tbaa !21
  %130 = load ptr, ptr %10, align 8, !tbaa !13
  %131 = load ptr, ptr %11, align 8, !tbaa !13
  call void @mi_print_amount(i64 noundef %129, i64 noundef 1, ptr noundef %130, ptr noundef %131) #6
  %132 = load ptr, ptr %10, align 8, !tbaa !13
  %133 = load ptr, ptr %11, align 8, !tbaa !13
  call void (ptr, ptr, ptr, ...) @_mi_fprintf(ptr noundef %132, ptr noundef %133, ptr noundef @.str.44, ptr noundef @.str.45) #6
  %134 = load ptr, ptr %7, align 8, !tbaa !16
  %135 = getelementptr inbounds nuw %struct.mi_stat_count_s, ptr %134, i32 0, i32 3
  %136 = load i64, ptr %135, align 8, !tbaa !18
  %137 = load ptr, ptr %10, align 8, !tbaa !13
  %138 = load ptr, ptr %11, align 8, !tbaa !13
  call void @mi_print_amount(i64 noundef %136, i64 noundef 1, ptr noundef %137, ptr noundef %138) #6
  %139 = load ptr, ptr %10, align 8, !tbaa !13
  %140 = load ptr, ptr %11, align 8, !tbaa !13
  call void (ptr, ptr, ptr, ...) @_mi_fprintf(ptr noundef %139, ptr noundef %140, ptr noundef @.str.30) #6
  br label %141

141:                                              ; preds = %121, %120
  ret void
}