; Function Attrs: nounwind uwtable
define internal fastcc void @mi_stat_print_ex(ptr noundef readonly captures(none) %0, ptr noundef %1, i64 noundef range(i64 -1, 2) %2, ptr noundef nonnull %3, ptr noundef %4) unnamed_addr #2 {
  %6 = alloca [32 x i8], align 16
  %7 = alloca [32 x i8], align 16
  %8 = alloca [32 x i8], align 16
  tail call void (ptr, ptr, ptr, ...) @_mi_fprintf(ptr noundef nonnull @mi_buffered_out, ptr noundef nonnull %3, ptr noundef nonnull @.str.39, ptr noundef %1) #8
  %.not = icmp eq i64 %2, 0
  br i1 %.not, label %36, label %9

9:                                                ; preds = %5
  %10 = icmp sgt i64 %2, 0
  %11 = getelementptr inbounds nuw i8, ptr %0, i64 16
  %12 = load i64, ptr %11, align 8, !tbaa !14
  %13 = getelementptr inbounds nuw i8, ptr %0, i64 8
  %14 = getelementptr inbounds nuw i8, ptr %0, i64 24
  br i1 %10, label %15, label %19

15:                                               ; preds = %9
  tail call fastcc void @mi_printf_amount(i64 noundef %12, i64 noundef 1, ptr noundef nonnull %3, ptr noundef null) #9
  %16 = load i64, ptr %0, align 8, !tbaa !15
  tail call fastcc void @mi_printf_amount(i64 noundef %16, i64 noundef 1, ptr noundef nonnull %3, ptr noundef null) #9
  %17 = load i64, ptr %13, align 8, !tbaa !16
  tail call fastcc void @mi_printf_amount(i64 noundef %17, i64 noundef 1, ptr noundef nonnull %3, ptr noundef null) #9
  %18 = load i64, ptr %14, align 8, !tbaa !12
  tail call fastcc void @mi_printf_amount(i64 noundef %18, i64 noundef 1, ptr noundef nonnull %3, ptr noundef null) #9
  call void @llvm.lifetime.start.p0(i64 32, ptr nonnull %8) #10
  store i8 0, ptr %8, align 16, !tbaa !41
  call void (ptr, ptr, ptr, ...) @_mi_fprintf(ptr noundef nonnull @mi_buffered_out, ptr noundef nonnull %3, ptr noundef nonnull @.str.46, ptr noundef nonnull %8) #8
  call void @llvm.lifetime.end.p0(i64 32, ptr nonnull %8) #10
  call void (ptr, ptr, ptr, ...) @_mi_fprintf(ptr noundef nonnull @mi_buffered_out, ptr noundef nonnull %3, ptr noundef nonnull @.str.46, ptr noundef nonnull @.str.45) #8
  br label %27

19:                                               ; preds = %9
  tail call fastcc void @mi_printf_amount(i64 noundef %12, i64 noundef -1, ptr noundef nonnull %3, ptr noundef null) #9
  %20 = load i64, ptr %0, align 8, !tbaa !15
  tail call fastcc void @mi_printf_amount(i64 noundef %20, i64 noundef -1, ptr noundef nonnull %3, ptr noundef null) #9
  %21 = load i64, ptr %13, align 8, !tbaa !16
  tail call fastcc void @mi_printf_amount(i64 noundef %21, i64 noundef -1, ptr noundef nonnull %3, ptr noundef null) #9
  %22 = load i64, ptr %14, align 8, !tbaa !12
  tail call fastcc void @mi_printf_amount(i64 noundef %22, i64 noundef -1, ptr noundef nonnull %3, ptr noundef null) #9
  %23 = icmp eq i64 %2, -1
  br i1 %23, label %24, label %mi_printf_amount.exit

24:                                               ; preds = %19
  tail call void (ptr, ptr, ptr, ...) @_mi_fprintf(ptr noundef nonnull @mi_buffered_out, ptr noundef nonnull %3, ptr noundef nonnull @.str.40, ptr noundef nonnull @.str.1) #8
  br label %27

mi_printf_amount.exit:                            ; preds = %19
  call void @llvm.lifetime.start.p0(i64 32, ptr nonnull %7) #10
  store i8 0, ptr %7, align 16, !tbaa !41
  %25 = call i32 (ptr, i64, ptr, ...) @_mi_snprintf(ptr noundef nonnull %7, i64 noundef 32, ptr noundef nonnull @.str.49, i64 noundef 0, ptr noundef nonnull @.str.1) #8
  call void (ptr, ptr, ptr, ...) @_mi_fprintf(ptr noundef nonnull @mi_buffered_out, ptr noundef nonnull %3, ptr noundef nonnull @.str.46, ptr noundef nonnull %7) #8
  call void @llvm.lifetime.end.p0(i64 32, ptr nonnull %7) #10
  call void @llvm.lifetime.start.p0(i64 32, ptr nonnull %6) #10
  store i8 0, ptr %6, align 16, !tbaa !41
  %26 = call i32 (ptr, i64, ptr, ...) @_mi_snprintf(ptr noundef nonnull %6, i64 noundef 32, ptr noundef nonnull @.str.49, i64 noundef poison, ptr noundef nonnull poison) #8
  call void (ptr, ptr, ptr, ...) @_mi_fprintf(ptr noundef nonnull @mi_buffered_out, ptr noundef nonnull %3, ptr noundef nonnull @.str.46, ptr noundef nonnull %6) #8
  call void @llvm.lifetime.end.p0(i64 32, ptr nonnull %6) #10
  br label %27

27:                                               ; preds = %24, %mi_printf_amount.exit, %15
  %28 = load i64, ptr %0, align 8, !tbaa !15
  %29 = getelementptr inbounds nuw i8, ptr %0, i64 8
  %30 = load i64, ptr %29, align 8, !tbaa !16
  %31 = icmp sgt i64 %28, %30
  br i1 %31, label %32, label %35

32:                                               ; preds = %27
  call void (ptr, ptr, ptr, ...) @_mi_fprintf(ptr noundef nonnull @mi_buffered_out, ptr noundef nonnull %3, ptr noundef nonnull @.str.41) #8
  %33 = icmp eq ptr %4, null
  %34 = select i1 %33, ptr @.str.42, ptr %4
  call void (ptr, ptr, ptr, ...) @_mi_fprintf(ptr noundef nonnull @mi_buffered_out, ptr noundef nonnull %3, ptr noundef nonnull %34) #8
  call void (ptr, ptr, ptr, ...) @_mi_fprintf(ptr noundef nonnull @mi_buffered_out, ptr noundef nonnull %3, ptr noundef nonnull @.str.30) #8
  br label %42

35:                                               ; preds = %27
  call void (ptr, ptr, ptr, ...) @_mi_fprintf(ptr noundef nonnull @mi_buffered_out, ptr noundef nonnull %3, ptr noundef nonnull @.str.43) #8
  br label %42

36:                                               ; preds = %5
  %37 = getelementptr inbounds nuw i8, ptr %0, i64 16
  %38 = load i64, ptr %37, align 8, !tbaa !14
  tail call fastcc void @mi_printf_amount(i64 noundef %38, i64 noundef 1, ptr noundef nonnull %3, ptr noundef null) #9
  %39 = load i64, ptr %0, align 8, !tbaa !15
  tail call fastcc void @mi_printf_amount(i64 noundef %39, i64 noundef 1, ptr noundef nonnull %3, ptr noundef null) #9
  tail call void (ptr, ptr, ptr, ...) @_mi_fprintf(ptr noundef nonnull @mi_buffered_out, ptr noundef nonnull %3, ptr noundef nonnull @.str.44, ptr noundef nonnull @.str.45) #8
  %40 = getelementptr inbounds nuw i8, ptr %0, i64 24
  %41 = load i64, ptr %40, align 8, !tbaa !12
  tail call fastcc void @mi_printf_amount(i64 noundef %41, i64 noundef 1, ptr noundef nonnull %3, ptr noundef null) #9
  tail call void (ptr, ptr, ptr, ...) @_mi_fprintf(ptr noundef nonnull @mi_buffered_out, ptr noundef nonnull %3, ptr noundef nonnull @.str.30) #8
  br label %42

42:                                               ; preds = %32, %35, %36
  ret void
}